target datalayout = "e-m:e-p270:32:32-p271:32:32-p272:64:64-i64:64-i128:128-f80:128-n8:16:32:64-S128"
target triple = "x86_64-pc-linux-gnu"

%struct.CVodeMemRec = type { ptr, double, ptr, ptr, i32, i32, double, double, ptr, i32, i32, ptr, ptr, i32, [13 x ptr], ptr, ptr, ptr, ptr, ptr, ptr, ptr, ptr, ptr, i32, i32, double, i32, i32, i32, i32, i32, double, double, double, double, double, double, double, double, [14 x double], [6 x double], [13 x double], double, double, double, double, double, double, double, i32, double, i32, i64, i32, i32, i32, double, double, double, double, double, double, double, double, double, double, double, double, i64, i32, i64, i64, i64, i64, i64, i64, i64, i32, double, double, double, i64, i64, i64, i64, ptr, i32, ptr, i32, ptr, ptr, ptr, ptr, ptr, i64, double, i32, i64, double, double, double, i32, double, i32, i32, i32, i32, i32, ptr, i64, i32, [6 x [4 x double]], i32, i64, ptr, i32, ptr, ptr, double, double, double, ptr, ptr, ptr, double, double, i32, i32, i64, ptr, i32, ptr, i32, i32, [13 x double], [13 x double], [13 x ptr], i32 }

@.str = private unnamed_addr constant [116 x i8] c"generated/home/dtcxzyw/WorkSpace/Projects/compilers/llvm-opt-benchmark/bench/sundials/sundials/src/cvode/cvode_io.c\00", align 1
@.str.1 = private unnamed_addr constant [26 x i8] c"cvode_mem = NULL illegal.\00", align 1
@.str.8 = private unnamed_addr constant [44 x i8] c"Inconsistent step size limits: hmin > hmax.\00", align 1
@__func__.CVodeSetMaxStep = private unnamed_addr constant [16 x i8] c"CVodeSetMaxStep\00", align 1
@.str.9 = private unnamed_addr constant [18 x i8] c"hmax < 0 illegal.\00", align 1

; Function Attrs: nounwind uwtable
define i32 @CVodeSetMaxStep(ptr noundef %0, double noundef %1) #0 {
  %3 = alloca i32, align 4
  %4 = alloca ptr, align 8
  %5 = alloca double, align 8
  %6 = alloca double, align 8
  %7 = alloca ptr, align 8
  store ptr %0, ptr %4, align 8
  store double %1, ptr %5, align 8
  %8 = load ptr, ptr %4, align 8
  %9 = icmp eq ptr %8, null
  br i1 %9, label %10, label %11

10:                                               ; preds = %2
  call void (ptr, i32, i32, ptr, ptr, ptr, ...) @cvProcessError(ptr noundef null, i32 noundef -21, i32 noundef 348, ptr noundef @__func__.CVodeSetMaxStep, ptr noundef @.str, ptr noundef @.str.1)
  store i32 -21, ptr %3, align 4
  br label %38

11:                                               ; preds = %2
  %12 = load ptr, ptr %4, align 8
  store ptr %12, ptr %7, align 8
  %13 = load double, ptr %5, align 8
  %14 = fcmp olt double %13, 0.000000e+00
  br i1 %14, label %15, label %17

15:                                               ; preds = %11
  %16 = load ptr, ptr %7, align 8
  call void (ptr, i32, i32, ptr, ptr, ptr, ...) @cvProcessError(ptr noundef %16, i32 noundef -22, i32 noundef 356, ptr noundef @__func__.CVodeSetMaxStep, ptr noundef @.str, ptr noundef @.str.9)
  store i32 -22, ptr %3, align 4
  br label %38

17:                                               ; preds = %11
  %18 = load double, ptr %5, align 8
  %19 = fcmp oeq double %18, 0.000000e+00
  br i1 %19, label %20, label %23

20:                                               ; preds = %17
  %21 = load ptr, ptr %7, align 8
  %22 = getelementptr inbounds %struct.CVodeMemRec, ptr %21, i32 0, i32 58
  store double 0.000000e+00, ptr %22, align 8
  store i32 0, ptr %3, align 4
  br label %38

23:                                               ; preds = %17
  %24 = load double, ptr %5, align 8
  %25 = fdiv double 1.000000e+00, %24
  store double %25, ptr %6, align 8
  %26 = load double, ptr %6, align 8
  %27 = load ptr, ptr %7, align 8
  %28 = getelementptr inbounds %struct.CVodeMemRec, ptr %27, i32 0, i32 57
  %29 = load double, ptr %28, align 8
  %30 = fmul double %26, %29
  %31 = fcmp ogt double %30, 1.000000e+00
  br i1 %31, label %32, label %34

32:                                               ; preds = %23
  %33 = load ptr, ptr %7, align 8
  call void (ptr, i32, i32, ptr, ptr, ptr, ...) @cvProcessError(ptr noundef %33, i32 noundef -22, i32 noundef 371, ptr noundef @__func__.CVodeSetMaxStep, ptr noundef @.str, ptr noundef @.str.8)
  store i32 -22, ptr %3, align 4
  br label %38

34:                                               ; preds = %23
  %35 = load double, ptr %6, align 8
  %36 = load ptr, ptr %7, align 8
  %37 = getelementptr inbounds %struct.CVodeMemRec, ptr %36, i32 0, i32 58
  store double %35, ptr %37, align 8
  store i32 0, ptr %3, align 4
  br label %38

38:                                               ; preds = %34, %32, %20, %15, %10
  %39 = load i32, ptr %3, align 4
  ret i32 %39
}