; Function Attrs: nounwind uwtable
define range(i32 -22, 1) i32 @CVodeSetMaxStep(ptr noundef %0, double noundef %1) local_unnamed_addr #0 {
  %3 = icmp eq ptr %0, null
  br i1 %3, label %4, label %5

4:                                                ; preds = %2
  tail call void (ptr, i32, i32, ptr, ptr, ptr, ...) @cvProcessError(ptr noundef null, i32 noundef -21, i32 noundef 348, ptr noundef nonnull @__func__.CVodeSetMaxStep, ptr noundef nonnull @.str, ptr noundef nonnull @.str.1) #7
  br label %21

5:                                                ; preds = %2
  %6 = fcmp olt double %1, 0.000000e+00
  br i1 %6, label %7, label %8

7:                                                ; preds = %5
  tail call void (ptr, i32, i32, ptr, ptr, ptr, ...) @cvProcessError(ptr noundef nonnull %0, i32 noundef -22, i32 noundef 356, ptr noundef nonnull @__func__.CVodeSetMaxStep, ptr noundef nonnull @.str, ptr noundef nonnull @.str.9) #7
  br label %21

8:                                                ; preds = %5
  %9 = fcmp oeq double %1, 0.000000e+00
  br i1 %9, label %10, label %12

10:                                               ; preds = %8
  %11 = getelementptr inbounds nuw i8, ptr %0, i64 752
  store double 0.000000e+00, ptr %11, align 8
  br label %21

12:                                               ; preds = %8
  %13 = fdiv double 1.000000e+00, %1
  %14 = getelementptr inbounds nuw i8, ptr %0, i64 744
  %15 = load double, ptr %14, align 8
  %16 = fmul double %13, %15
  %17 = fcmp ogt double %16, 1.000000e+00
  br i1 %17, label %18, label %19

18:                                               ; preds = %12
  tail call void (ptr, i32, i32, ptr, ptr, ptr, ...) @cvProcessError(ptr noundef nonnull %0, i32 noundef -22, i32 noundef 371, ptr noundef nonnull @__func__.CVodeSetMaxStep, ptr noundef nonnull @.str, ptr noundef nonnull @.str.8) #7
  br label %21

19:                                               ; preds = %12
  %20 = getelementptr inbounds nuw i8, ptr %0, i64 752
  store double %13, ptr %20, align 8
  br label %21

21:                                               ; preds = %19, %18, %10, %7, %4
  %.0 = phi i32 [ -21, %4 ], [ -22, %7 ], [ 0, %10 ], [ -22, %18 ], [ 0, %19 ]
  ret i32 %.0
}